target datalayout = "e-m:e-p270:32:32-p271:32:32-p272:64:64-i64:64-i128:128-f80:128-n8:16:32:64-S128"
target triple = "x86_64-pc-linux-gnu"

; Function Attrs: nounwind uwtable
define internal void @blend_pixel16(ptr noundef %0, i32 noundef %1, i32 noundef %2, ptr noundef %3, i32 noundef %4, i32 noundef %5, i32 noundef %6, i32 noundef %7, i32 noundef %8, i32 noundef %9) #0 {
  %11 = alloca ptr, align 8
  %12 = alloca i32, align 4
  %13 = alloca i32, align 4
  %14 = alloca ptr, align 8
  %15 = alloca i32, align 4
  %16 = alloca i32, align 4
  %17 = alloca i32, align 4
  %18 = alloca i32, align 4
  %19 = alloca i32, align 4
  %20 = alloca i32, align 4
  %21 = alloca i32, align 4
  %22 = alloca i32, align 4
  %23 = alloca i32, align 4
  %24 = alloca i32, align 4
  %25 = alloca i32, align 4
  %26 = alloca i16, align 2
  %27 = alloca i32, align 4
  %28 = alloca i32, align 4
  %29 = alloca i32, align 4
  %30 = alloca i32, align 4
  store ptr %0, ptr %11, align 8, !tbaa !4
  store i32 %1, ptr %12, align 4, !tbaa !9
  store i32 %2, ptr %13, align 4, !tbaa !9
  store ptr %3, ptr %14, align 8, !tbaa !4
  store i32 %4, ptr %15, align 4, !tbaa !9
  store i32 %5, ptr %16, align 4, !tbaa !9
  store i32 %6, ptr %17, align 4, !tbaa !9
  store i32 %7, ptr %18, align 4, !tbaa !9
  store i32 %8, ptr %19, align 4, !tbaa !9
  store i32 %9, ptr %20, align 4, !tbaa !9
  call void @llvm.lifetime.start.p0(i64 4, ptr %21) #8
  store i32 0, ptr %21, align 4, !tbaa !9
  call void @llvm.lifetime.start.p0(i64 4, ptr %22) #8
  %31 = load i32, ptr %16, align 4, !tbaa !9
  %32 = sub nsw i32 3, %31
  store i32 %32, ptr %22, align 4, !tbaa !9
  call void @llvm.lifetime.start.p0(i64 4, ptr %23) #8
  %33 = load i32, ptr %16, align 4, !tbaa !9
  %34 = ashr i32 7, %33
  store i32 %34, ptr %23, align 4, !tbaa !9
  call void @llvm.lifetime.start.p0(i64 4, ptr %24) #8
  %35 = load i32, ptr %16, align 4, !tbaa !9
  %36 = shl i32 1, %35
  %37 = shl i32 1, %36
  %38 = sub nsw i32 %37, 1
  store i32 %38, ptr %24, align 4, !tbaa !9
  call void @llvm.lifetime.start.p0(i64 4, ptr %25) #8
  %39 = load i32, ptr %24, align 4, !tbaa !9
  %40 = udiv i32 255, %39
  store i32 %40, ptr %25, align 4, !tbaa !9
  call void @llvm.lifetime.start.p0(i64 2, ptr %26) #8
  %41 = load ptr, ptr %11, align 8, !tbaa !4
  %42 = load i16, ptr %41, align 1, !tbaa !19
  store i16 %42, ptr %26, align 2, !tbaa !68
  call void @llvm.lifetime.start.p0(i64 4, ptr %27) #8
  store i32 0, ptr %27, align 4, !tbaa !9
  br label %43

43:                                               ; preds = %87, %10
  %44 = load i32, ptr %27, align 4, !tbaa !9
  %45 = load i32, ptr %18, align 4, !tbaa !9
  %46 = icmp ult i32 %44, %45
  br i1 %46, label %48, label %47

47:                                               ; preds = %43
  store i32 2, ptr %28, align 4
  call void @llvm.lifetime.end.p0(i64 4, ptr %27) #8
  br label %90

48:                                               ; preds = %43
  call void @llvm.lifetime.start.p0(i64 4, ptr %29) #8
  %49 = load i32, ptr %20, align 4, !tbaa !9
  store i32 %49, ptr %29, align 4, !tbaa !9
  call void @llvm.lifetime.start.p0(i64 4, ptr %30) #8
  store i32 0, ptr %30, align 4, !tbaa !9
  br label %50

50:                                               ; preds = %79, %48
  %51 = load i32, ptr %30, align 4, !tbaa !9
  %52 = load i32, ptr %17, align 4, !tbaa !9
  %53 = icmp ult i32 %51, %52
  br i1 %53, label %55, label %54

54:                                               ; preds = %50
  store i32 5, ptr %28, align 4
  call void @llvm.lifetime.end.p0(i64 4, ptr %30) #8
  br label %82

55:                                               ; preds = %50
  %56 = load ptr, ptr %14, align 8, !tbaa !4
  %57 = load i32, ptr %29, align 4, !tbaa !9
  %58 = load i32, ptr %22, align 4, !tbaa !9
  %59 = lshr i32 %57, %58
  %60 = zext i32 %59 to i64
  %61 = getelementptr inbounds nuw i8, ptr %56, i64 %60
  %62 = load i8, ptr %61, align 1, !tbaa !19
  %63 = zext i8 %62 to i32
  %64 = load i32, ptr %29, align 4, !tbaa !9
  %65 = xor i32 %64, -1
  %66 = load i32, ptr %23, align 4, !tbaa !9
  %67 = and i32 %65, %66
  %68 = load i32, ptr %16, align 4, !tbaa !9
  %69 = shl i32 %67, %68
  %70 = ashr i32 %63, %69
  %71 = load i32, ptr %24, align 4, !tbaa !9
  %72 = and i32 %70, %71
  %73 = load i32, ptr %25, align 4, !tbaa !9
  %74 = mul i32 %72, %73
  %75 = load i32, ptr %21, align 4, !tbaa !9
  %76 = add i32 %75, %74
  store i32 %76, ptr %21, align 4, !tbaa !9
  %77 = load i32, ptr %29, align 4, !tbaa !9
  %78 = add i32 %77, 1
  store i32 %78, ptr %29, align 4, !tbaa !9
  br label %79

79:                                               ; preds = %55
  %80 = load i32, ptr %30, align 4, !tbaa !9
  %81 = add i32 %80, 1
  store i32 %81, ptr %30, align 4, !tbaa !9
  br label %50, !llvm.loop !82

82:                                               ; preds = %54
  %83 = load i32, ptr %15, align 4, !tbaa !9
  %84 = load ptr, ptr %14, align 8, !tbaa !4
  %85 = sext i32 %83 to i64
  %86 = getelementptr inbounds i8, ptr %84, i64 %85
  store ptr %86, ptr %14, align 8, !tbaa !4
  call void @llvm.lifetime.end.p0(i64 4, ptr %29) #8
  br label %87

87:                                               ; preds = %82
  %88 = load i32, ptr %27, align 4, !tbaa !9
  %89 = add i32 %88, 1
  store i32 %89, ptr %27, align 4, !tbaa !9
  br label %43, !llvm.loop !83

90:                                               ; preds = %47
  %91 = load i32, ptr %21, align 4, !tbaa !9
  %92 = load i32, ptr %19, align 4, !tbaa !9
  %93 = lshr i32 %91, %92
  %94 = load i32, ptr %13, align 4, !tbaa !9
  %95 = mul i32 %93, %94
  store i32 %95, ptr %13, align 4, !tbaa !9
  %96 = load i32, ptr %13, align 4, !tbaa !9
  %97 = sub i32 65537, %96
  %98 = load i16, ptr %26, align 2, !tbaa !68
  %99 = zext i16 %98 to i32
  %100 = mul i32 %97, %99
  %101 = load i32, ptr %13, align 4, !tbaa !9
  %102 = load i32, ptr %12, align 4, !tbaa !9
  %103 = mul i32 %101, %102
  %104 = add i32 %100, %103
  %105 = lshr i32 %104, 16
  %106 = trunc i32 %105 to i16
  %107 = load ptr, ptr %11, align 8, !tbaa !4
  store i16 %106, ptr %107, align 1, !tbaa !19
  call void @llvm.lifetime.end.p0(i64 2, ptr %26) #8
  call void @llvm.lifetime.end.p0(i64 4, ptr %25) #8
  call void @llvm.lifetime.end.p0(i64 4, ptr %24) #8
  call void @llvm.lifetime.end.p0(i64 4, ptr %23) #8
  call void @llvm.lifetime.end.p0(i64 4, ptr %22) #8
  call void @llvm.lifetime.end.p0(i64 4, ptr %21) #8
  ret void
}

; Function Attrs: nounwind uwtable
define internal void @blend_line_hv16(ptr noundef %0, i32 noundef %1, i32 noundef %2, i32 noundef %3, ptr noundef %4, i32 noundef %5, i32 noundef %6, i32 noundef %7, i32 noundef %8, i32 noundef %9, i32 noundef %10, i32 noundef %11, i32 noundef %12, i32 noundef %13) #0 {
  %15 = alloca ptr, align 8
  %16 = alloca i32, align 4
  %17 = alloca i32, align 4
  %18 = alloca i32, align 4
  %19 = alloca ptr, align 8
  %20 = alloca i32, align 4
  %21 = alloca i32, align 4
  %22 = alloca i32, align 4
  %23 = alloca i32, align 4
  %24 = alloca i32, align 4
  %25 = alloca i32, align 4
  %26 = alloca i32, align 4
  %27 = alloca i32, align 4
  %28 = alloca i32, align 4
  %29 = alloca i32, align 4
  store ptr %0, ptr %15, align 8, !tbaa !4
  store i32 %1, ptr %16, align 4, !tbaa !9
  store i32 %2, ptr %17, align 4, !tbaa !9
  store i32 %3, ptr %18, align 4, !tbaa !9
  store ptr %4, ptr %19, align 8, !tbaa !4
  store i32 %5, ptr %20, align 4, !tbaa !9
  store i32 %6, ptr %21, align 4, !tbaa !9
  store i32 %7, ptr %22, align 4, !tbaa !9
  store i32 %8, ptr %23, align 4, !tbaa !9
  store i32 %9, ptr %24, align 4, !tbaa !9
  store i32 %10, ptr %25, align 4, !tbaa !9
  store i32 %11, ptr %26, align 4, !tbaa !9
  store i32 %12, ptr %27, align 4, !tbaa !9
  store i32 %13, ptr %28, align 4, !tbaa !9
  %30 = load i32, ptr %26, align 4, !tbaa !9
  %31 = icmp ne i32 %30, 0
  br i1 %31, label %32, label %52

32:                                               ; preds = %14
  %33 = load ptr, ptr %15, align 8, !tbaa !4
  %34 = load i32, ptr %17, align 4, !tbaa !9
  %35 = load i32, ptr %18, align 4, !tbaa !9
  %36 = load ptr, ptr %19, align 8, !tbaa !4
  %37 = load i32, ptr %20, align 4, !tbaa !9
  %38 = load i32, ptr %21, align 4, !tbaa !9
  %39 = load i32, ptr %26, align 4, !tbaa !9
  %40 = load i32, ptr %28, align 4, !tbaa !9
  %41 = load i32, ptr %23, align 4, !tbaa !9
  %42 = load i32, ptr %24, align 4, !tbaa !9
  %43 = add i32 %41, %42
  %44 = load i32, ptr %25, align 4, !tbaa !9
  call void @blend_pixel16(ptr noundef %33, i32 noundef %34, i32 noundef %35, ptr noundef %36, i32 noundef %37, i32 noundef %38, i32 noundef %39, i32 noundef %40, i32 noundef %43, i32 noundef %44)
  %45 = load i32, ptr %16, align 4, !tbaa !9
  %46 = load ptr, ptr %15, align 8, !tbaa !4
  %47 = sext i32 %45 to i64
  %48 = getelementptr inbounds i8, ptr %46, i64 %47
  store ptr %48, ptr %15, align 8, !tbaa !4
  %49 = load i32, ptr %26, align 4, !tbaa !9
  %50 = load i32, ptr %25, align 4, !tbaa !9
  %51 = add nsw i32 %50, %49
  store i32 %51, ptr %25, align 4, !tbaa !9
  br label %52

52:                                               ; preds = %32, %14
  call void @llvm.lifetime.start.p0(i64 4, ptr %29) #8
  store i32 0, ptr %29, align 4, !tbaa !9
  br label %53

53:                                               ; preds = %80, %52
  %54 = load i32, ptr %29, align 4, !tbaa !9
  %55 = load i32, ptr %22, align 4, !tbaa !9
  %56 = icmp slt i32 %54, %55
  br i1 %56, label %58, label %57

57:                                               ; preds = %53
  call void @llvm.lifetime.end.p0(i64 4, ptr %29) #8
  br label %83

58:                                               ; preds = %53
  %59 = load ptr, ptr %15, align 8, !tbaa !4
  %60 = load i32, ptr %17, align 4, !tbaa !9
  %61 = load i32, ptr %18, align 4, !tbaa !9
  %62 = load ptr, ptr %19, align 8, !tbaa !4
  %63 = load i32, ptr %20, align 4, !tbaa !9
  %64 = load i32, ptr %21, align 4, !tbaa !9
  %65 = load i32, ptr %23, align 4, !tbaa !9
  %66 = shl i32 1, %65
  %67 = load i32, ptr %28, align 4, !tbaa !9
  %68 = load i32, ptr %23, align 4, !tbaa !9
  %69 = load i32, ptr %24, align 4, !tbaa !9
  %70 = add i32 %68, %69
  %71 = load i32, ptr %25, align 4, !tbaa !9
  call void @blend_pixel16(ptr noundef %59, i32 noundef %60, i32 noundef %61, ptr noundef %62, i32 noundef %63, i32 noundef %64, i32 noundef %66, i32 noundef %67, i32 noundef %70, i32 noundef %71)
  %72 = load i32, ptr %16, align 4, !tbaa !9
  %73 = load ptr, ptr %15, align 8, !tbaa !4
  %74 = sext i32 %72 to i64
  %75 = getelementptr inbounds i8, ptr %73, i64 %74
  store ptr %75, ptr %15, align 8, !tbaa !4
  %76 = load i32, ptr %23, align 4, !tbaa !9
  %77 = shl i32 1, %76
  %78 = load i32, ptr %25, align 4, !tbaa !9
  %79 = add nsw i32 %78, %77
  store i32 %79, ptr %25, align 4, !tbaa !9
  br label %80

80:                                               ; preds = %58
  %81 = load i32, ptr %29, align 4, !tbaa !9
  %82 = add nsw i32 %81, 1
  store i32 %82, ptr %29, align 4, !tbaa !9
  br label %53, !llvm.loop !76

83:                                               ; preds = %57
  %84 = load i32, ptr %27, align 4, !tbaa !9
  %85 = icmp ne i32 %84, 0
  br i1 %85, label %86, label %99

86:                                               ; preds = %83
  %87 = load ptr, ptr %15, align 8, !tbaa !4
  %88 = load i32, ptr %17, align 4, !tbaa !9
  %89 = load i32, ptr %18, align 4, !tbaa !9
  %90 = load ptr, ptr %19, align 8, !tbaa !4
  %91 = load i32, ptr %20, align 4, !tbaa !9
  %92 = load i32, ptr %21, align 4, !tbaa !9
  %93 = load i32, ptr %27, align 4, !tbaa !9
  %94 = load i32, ptr %28, align 4, !tbaa !9
  %95 = load i32, ptr %23, align 4, !tbaa !9
  %96 = load i32, ptr %24, align 4, !tbaa !9
  %97 = add i32 %95, %96
  %98 = load i32, ptr %25, align 4, !tbaa !9
  call void @blend_pixel16(ptr noundef %87, i32 noundef %88, i32 noundef %89, ptr noundef %90, i32 noundef %91, i32 noundef %92, i32 noundef %93, i32 noundef %94, i32 noundef %97, i32 noundef %98)
  br label %99

99:                                               ; preds = %86, %83
  ret void
}