; Function Attrs: nofree norecurse nosync nounwind memory(argmem: readwrite) uwtable
define internal fastcc void @blend_line_hv16(ptr noundef captures(none) %0, i32 noundef %1, i32 noundef range(i32 0, 65536) %2, i32 noundef range(i32 1, 66052) %3, ptr noundef readonly captures(none) %4, i32 noundef %5, i32 noundef %6, i32 noundef %7, i32 noundef range(i32 0, 256) %8, i32 noundef range(i32 0, 256) %9, i32 noundef %10, i32 noundef %11, i32 noundef %12, i32 noundef %13) unnamed_addr #7 {
  %.not = icmp eq i32 %11, 0
  br i1 %.not, label %53, label %15

15:                                               ; preds = %14
  %16 = add nuw nsw i32 %9, %8
  %17 = sub nsw i32 3, %6
  %18 = lshr i32 7, %6
  %19 = shl nuw i32 1, %6
  %notmask.i = shl nsw i32 -1, %19
  %20 = xor i32 %notmask.i, -1
  %21 = udiv i32 255, %20
  %22 = load i16, ptr %0, align 1, !tbaa !15
  %.not.i = icmp eq i32 %13, 0
  br i1 %.not.i, label %blend_pixel16.exit, label %.preheader.lr.ph.i

.preheader.lr.ph.i:                               ; preds = %15
  %23 = sext i32 %5 to i64
  br label %.preheader.us.i

.preheader.us.i:                                  ; preds = %.preheader.lr.ph.i, %._crit_edge.us.i
  %.03240.us.i = phi i32 [ %40, %._crit_edge.us.i ], [ 0, %.preheader.lr.ph.i ]
  %.03339.us.i = phi ptr [ %39, %._crit_edge.us.i ], [ %4, %.preheader.lr.ph.i ]
  %.03438.us.i = phi i32 [ %36, %._crit_edge.us.i ], [ 0, %.preheader.lr.ph.i ]
  br label %24

24:                                               ; preds = %24, %.preheader.us.i
  %.037.us.i = phi i32 [ 0, %.preheader.us.i ], [ %38, %24 ]
  %.03136.us.i = phi i32 [ %10, %.preheader.us.i ], [ %37, %24 ]
  %.135.us.i = phi i32 [ %.03438.us.i, %.preheader.us.i ], [ %36, %24 ]
  %25 = lshr i32 %.03136.us.i, %17
  %26 = zext i32 %25 to i64
  %27 = getelementptr inbounds nuw i8, ptr %.03339.us.i, i64 %26
  %28 = load i8, ptr %27, align 1, !tbaa !15
  %29 = zext i8 %28 to i32
  %30 = xor i32 %.03136.us.i, -1
  %31 = and i32 %18, %30
  %32 = shl i32 %31, %6
  %33 = lshr i32 %29, %32
  %34 = and i32 %33, %20
  %35 = mul nuw nsw i32 %34, %21
  %36 = add i32 %35, %.135.us.i
  %37 = add i32 %.03136.us.i, 1
  %38 = add nuw i32 %.037.us.i, 1
  %exitcond.not.i = icmp eq i32 %38, %11
  br i1 %exitcond.not.i, label %._crit_edge.us.i, label %24, !llvm.loop !55

._crit_edge.us.i:                                 ; preds = %24
  %39 = getelementptr inbounds i8, ptr %.03339.us.i, i64 %23
  %40 = add nuw i32 %.03240.us.i, 1
  %exitcond45.not.i = icmp eq i32 %40, %13
  br i1 %exitcond45.not.i, label %blend_pixel16.exit, label %.preheader.us.i, !llvm.loop !56

blend_pixel16.exit:                               ; preds = %._crit_edge.us.i, %15
  %.034.lcssa.i = phi i32 [ 0, %15 ], [ %36, %._crit_edge.us.i ]
  %41 = lshr i32 %.034.lcssa.i, %16
  %42 = mul i32 %41, %3
  %43 = sub i32 65537, %42
  %44 = zext i16 %22 to i32
  %45 = mul i32 %43, %44
  %46 = mul i32 %42, %2
  %47 = add i32 %45, %46
  %48 = lshr i32 %47, 16
  %49 = trunc nuw i32 %48 to i16
  store i16 %49, ptr %0, align 1, !tbaa !15
  %50 = sext i32 %1 to i64
  %51 = getelementptr inbounds i8, ptr %0, i64 %50
  %52 = add nsw i32 %11, %10
  br label %53

53:                                               ; preds = %blend_pixel16.exit, %14
  %.046 = phi i32 [ %52, %blend_pixel16.exit ], [ %10, %14 ]
  %.045 = phi ptr [ %51, %blend_pixel16.exit ], [ %0, %14 ]
  %invariant.op = mul i32 %3, %2
  %54 = icmp sgt i32 %7, 0
  br i1 %54, label %.lr.ph, label %._crit_edge

.lr.ph:                                           ; preds = %53
  %55 = shl nuw i32 1, %8
  %56 = add nuw nsw i32 %9, %8
  %57 = sub nsw i32 3, %6
  %58 = lshr i32 7, %6
  %59 = shl nuw i32 1, %6
  %notmask.i51 = shl nsw i32 -1, %59
  %60 = xor i32 %notmask.i51, -1
  %61 = udiv i32 255, %60
  %.not.i52 = icmp eq i32 %13, 0
  %62 = sext i32 %5 to i64
  %63 = sext i32 %1 to i64
  br i1 %.not.i52, label %blend_pixel16.exit66.us.preheader, label %.preheader.lr.ph.i53

blend_pixel16.exit66.us.preheader:                ; preds = %.lr.ph
  %64 = zext nneg i32 %7 to i64
  %65 = mul nsw i64 %64, %63
  %scevgep = getelementptr i8, ptr %.045, i64 %65
  %66 = add i32 %11, %10
  %67 = shl i32 %7, %8
  %68 = add i32 %66, %67
  br label %._crit_edge

._crit_edge:                                      ; preds = %blend_pixel16.exit66.loopexit, %blend_pixel16.exit66.us.preheader, %53
  %.147.lcssa = phi i32 [ %.046, %53 ], [ %68, %blend_pixel16.exit66.us.preheader ], [ %96, %blend_pixel16.exit66.loopexit ]
  %.1.lcssa = phi ptr [ %.045, %53 ], [ %scevgep, %blend_pixel16.exit66.us.preheader ], [ %95, %blend_pixel16.exit66.loopexit ]
  %.not50 = icmp eq i32 %12, 0
  br i1 %.not50, label %133, label %98

.preheader.lr.ph.i53:                             ; preds = %.lr.ph, %blend_pixel16.exit66.loopexit
  %.087 = phi i32 [ %97, %blend_pixel16.exit66.loopexit ], [ 0, %.lr.ph ]
  %.186 = phi ptr [ %95, %blend_pixel16.exit66.loopexit ], [ %.045, %.lr.ph ]
  %.14785 = phi i32 [ %96, %blend_pixel16.exit66.loopexit ], [ %.046, %.lr.ph ]
  %69 = load i16, ptr %.186, align 1, !tbaa !15
  br label %.preheader.us.i55

.preheader.us.i55:                                ; preds = %.preheader.lr.ph.i53, %._crit_edge.us.i63
  %.03240.us.i56 = phi i32 [ %86, %._crit_edge.us.i63 ], [ 0, %.preheader.lr.ph.i53 ]
  %.03339.us.i57 = phi ptr [ %85, %._crit_edge.us.i63 ], [ %4, %.preheader.lr.ph.i53 ]
  %.03438.us.i58 = phi i32 [ %82, %._crit_edge.us.i63 ], [ 0, %.preheader.lr.ph.i53 ]
  br label %70

70:                                               ; preds = %70, %.preheader.us.i55
  %.037.us.i59 = phi i32 [ 0, %.preheader.us.i55 ], [ %84, %70 ]
  %.03136.us.i60 = phi i32 [ %.14785, %.preheader.us.i55 ], [ %83, %70 ]
  %.135.us.i61 = phi i32 [ %.03438.us.i58, %.preheader.us.i55 ], [ %82, %70 ]
  %71 = lshr i32 %.03136.us.i60, %57
  %72 = zext i32 %71 to i64
  %73 = getelementptr inbounds nuw i8, ptr %.03339.us.i57, i64 %72
  %74 = load i8, ptr %73, align 1, !tbaa !15
  %75 = zext i8 %74 to i32
  %76 = xor i32 %.03136.us.i60, -1
  %77 = and i32 %58, %76
  %78 = shl i32 %77, %6
  %79 = lshr i32 %75, %78
  %80 = and i32 %79, %60
  %81 = mul nuw nsw i32 %80, %61
  %82 = add i32 %81, %.135.us.i61
  %83 = add i32 %.03136.us.i60, 1
  %84 = add nuw i32 %.037.us.i59, 1
  %exitcond.not.i62 = icmp eq i32 %84, %55
  br i1 %exitcond.not.i62, label %._crit_edge.us.i63, label %70, !llvm.loop !55

._crit_edge.us.i63:                               ; preds = %70
  %85 = getelementptr inbounds i8, ptr %.03339.us.i57, i64 %62
  %86 = add nuw i32 %.03240.us.i56, 1
  %exitcond45.not.i64 = icmp eq i32 %86, %13
  br i1 %exitcond45.not.i64, label %blend_pixel16.exit66.loopexit, label %.preheader.us.i55, !llvm.loop !56

blend_pixel16.exit66.loopexit:                    ; preds = %._crit_edge.us.i63
  %87 = lshr i32 %82, %56
  %88 = mul i32 %87, %3
  %89 = sub i32 65537, %88
  %90 = zext i16 %69 to i32
  %91 = mul i32 %89, %90
  %.reass = mul i32 %87, %invariant.op
  %92 = add i32 %91, %.reass
  %93 = lshr i32 %92, 16
  %94 = trunc nuw i32 %93 to i16
  store i16 %94, ptr %.186, align 1, !tbaa !15
  %95 = getelementptr inbounds i8, ptr %.186, i64 %63
  %96 = add nsw i32 %.14785, %55
  %97 = add nuw nsw i32 %.087, 1
  %exitcond.not = icmp eq i32 %97, %7
  br i1 %exitcond.not, label %._crit_edge, label %.preheader.lr.ph.i53, !llvm.loop !57

98:                                               ; preds = %._crit_edge
  %99 = add nuw nsw i32 %9, %8
  %100 = sub nsw i32 3, %6
  %101 = lshr i32 7, %6
  %102 = shl nuw i32 1, %6
  %notmask.i67 = shl nsw i32 -1, %102
  %103 = xor i32 %notmask.i67, -1
  %104 = udiv i32 255, %103
  %105 = load i16, ptr %.1.lcssa, align 1, !tbaa !15
  %.not.i68 = icmp eq i32 %13, 0
  br i1 %.not.i68, label %blend_pixel16.exit82, label %.preheader.lr.ph.i69

.preheader.lr.ph.i69:                             ; preds = %98
  %106 = sext i32 %5 to i64
  br label %.preheader.us.i71

.preheader.us.i71:                                ; preds = %.preheader.lr.ph.i69, %._crit_edge.us.i79
  %.03240.us.i72 = phi i32 [ %123, %._crit_edge.us.i79 ], [ 0, %.preheader.lr.ph.i69 ]
  %.03339.us.i73 = phi ptr [ %122, %._crit_edge.us.i79 ], [ %4, %.preheader.lr.ph.i69 ]
  %.03438.us.i74 = phi i32 [ %119, %._crit_edge.us.i79 ], [ 0, %.preheader.lr.ph.i69 ]
  br label %107

107:                                              ; preds = %107, %.preheader.us.i71
  %.037.us.i75 = phi i32 [ 0, %.preheader.us.i71 ], [ %121, %107 ]
  %.03136.us.i76 = phi i32 [ %.147.lcssa, %.preheader.us.i71 ], [ %120, %107 ]
  %.135.us.i77 = phi i32 [ %.03438.us.i74, %.preheader.us.i71 ], [ %119, %107 ]
  %108 = lshr i32 %.03136.us.i76, %100
  %109 = zext i32 %108 to i64
  %110 = getelementptr inbounds nuw i8, ptr %.03339.us.i73, i64 %109
  %111 = load i8, ptr %110, align 1, !tbaa !15
  %112 = zext i8 %111 to i32
  %113 = xor i32 %.03136.us.i76, -1
  %114 = and i32 %101, %113
  %115 = shl i32 %114, %6
  %116 = lshr i32 %112, %115
  %117 = and i32 %116, %103
  %118 = mul nuw nsw i32 %117, %104
  %119 = add i32 %118, %.135.us.i77
  %120 = add i32 %.03136.us.i76, 1
  %121 = add nuw i32 %.037.us.i75, 1
  %exitcond.not.i78 = icmp eq i32 %121, %12
  br i1 %exitcond.not.i78, label %._crit_edge.us.i79, label %107, !llvm.loop !55

._crit_edge.us.i79:                               ; preds = %107
  %122 = getelementptr inbounds i8, ptr %.03339.us.i73, i64 %106
  %123 = add nuw i32 %.03240.us.i72, 1
  %exitcond45.not.i80 = icmp eq i32 %123, %13
  br i1 %exitcond45.not.i80, label %blend_pixel16.exit82, label %.preheader.us.i71, !llvm.loop !56

blend_pixel16.exit82:                             ; preds = %._crit_edge.us.i79, %98
  %.034.lcssa.i81 = phi i32 [ 0, %98 ], [ %119, %._crit_edge.us.i79 ]
  %124 = lshr i32 %.034.lcssa.i81, %99
  %125 = mul i32 %124, %3
  %126 = sub i32 65537, %125
  %127 = zext i16 %105 to i32
  %128 = mul i32 %126, %127
  %129 = mul i32 %125, %2
  %130 = add i32 %128, %129
  %131 = lshr i32 %130, 16
  %132 = trunc nuw i32 %131 to i16
  store i16 %132, ptr %.1.lcssa, align 1, !tbaa !15
  br label %133

133:                                              ; preds = %blend_pixel16.exit82, %._crit_edge
  ret void
}